(dp1
S'session'
p2
(dp3
S'state'
p4
(dp5
S'auth_type'
p6
S'oauth2'
p7
sS'launch_context'
p8
(dp9
Vpatient
p10
V1869612
p11
sVid_token
p12
VeyJhbGciOiJSUzI1NiJ9.eyJleHAiOjE0MzU2MDEyMTgsInN1YiI6Im15dW5nY2hvaSIsImF1ZCI6WyJteV93ZWJfYXBwIl0sImlzcyI6Imh0dHBzOlwvXC9hdXRob3JpemUuc21hcnRoZWFsdGhpdC5vcmdcLyIsImlhdCI6MTQzNTYwMDYxOCwicHJvZmlsZSI6IlByYWN0aXRpb25lclwvMTIzNCJ9.wNBa7XYCZhoU1UalgZ4k5UsiHga56qCd62PO_e8LNb7ZOrw-9RqU0Cd3RR5gk8VTWePw-lP7Wy9ZQDfLoPlfDplK6xQPoGEp10Xa6BYA5-1u4vYfsLroGEwlu4xZu5SXQlIu_52ufjf-HP8sLbBlzGlKwFnrQ5_0GHh4KvxvAk4
p13
sVtoken_type
p14
VBearer
p15
sVsmart_style_url
p16
Vhttps://fhir.smarthealthit.org/stylesheets/smart_v1.json
p17
sVneed_patient_banner
p18
I01
sVscope
p19
Vlaunch openid user/*.* patient/*.read profile
p20
ssS'app_id'
p21
S'my_web_app'
p22
sS'auth'
p23
(dp24
S'access_token'
p25
VeyJhbGciOiJSUzI1NiJ9.eyJleHAiOjE0MzU2MDQyMTgsImF1ZCI6WyJteV93ZWJfYXBwIl0sImlzcyI6Imh0dHBzOlwvXC9hdXRob3JpemUuc21hcnRoZWFsdGhpdC5vcmdcLyIsImp0aSI6ImRmZjliY2I5LWFjOGItNDYzMS1hZDU1LTVlYTZhZTkxYTM2OCIsImlhdCI6MTQzNTYwMDYxOH0.xznjBlRKz7Juzhg2rqeE5C8hnZWEREGnl5el-SLI0pER6ZfaFimCt1X5SN7HyzMOAd9WlCyO-dQVZX5ERi5QQ_znXsCa8_BOsTUVai4ueTZNud2By8BTJPuTDwJim4d5p_P35sLi62zfi4IkpC41QT3ZQXtg1KIu_6eRsSDIRYQ
p26
sS'patient_id'
p27
g11
sS'redirect_uri'
p28
S'http://localhost:8000/fhir-app/'
p29
sS'auth_state'
p30
S'baa2f2d1'
p31
sS'scope'
p32
S'launch/patient user/*.* patient/*.read openid profile'
p33
sS'refresh_token'
p34
NssS'server'
p35
(dp36
S'base_uri'
p37
S'https://fhir-api.smarthealthit.org'
p38
sS'token_uri'
p39
Vhttps://authorize.smarthealthit.org/token
p40
sS'registration_uri'
p41
Vhttps://authorize.smarthealthit.org/register
p42
sS'authorize_uri'
p43
Vhttps://authorize.smarthealthit.org/authorize
p44
sssS'_accessed_time'
p45
F1435600575.9703779
sS'_creation_time'
p46
F1435597252.5131159
ss.